; Function Attrs: mustprogress nounwind uwtable
define internal fastcc void @_ZN4absl12lts_202308028StatusOrIN9grpc_core12_GLOBAL__N_126ServerConfigSelectorFilterEED2Ev(ptr nocapture noundef nonnull align 8 dereferenceable(56) %this) unnamed_addr #7 align 2 personality ptr @__gxx_personality_v0 {
entry:
  %this.val.i = load i64, ptr %this, align 8
  %cmp.i.i.i = icmp eq i64 %this.val.i, 0
  br i1 %cmp.i.i.i, label %_ZN4absl12lts_202308026StatusD2Ev.exit.i, label %if.else.i

_ZN4absl12lts_202308026StatusD2Ev.exit.i:         ; preds = %entry
  %0 = getelementptr inbounds i8, ptr %this, i64 8
  tail call void @_ZN9grpc_core12_GLOBAL__N_126ServerConfigSelectorFilterD2Ev(ptr noundef nonnull align 8 dereferenceable(48) %0) #25
  br label %_ZN4absl12lts_2023080217internal_statusor12StatusOrDataIN9grpc_core12_GLOBAL__N_126ServerConfigSelectorFilterEED2Ev.exit

if.else.i:                                        ; preds = %entry
  %and.i.i.i1.i = and i64 %this.val.i, 1
  %cmp.i.i.i2.i = icmp eq i64 %and.i.i.i1.i, 0
  br i1 %cmp.i.i.i2.i, label %_ZN4absl12lts_2023080217internal_statusor12StatusOrDataIN9grpc_core12_GLOBAL__N_126ServerConfigSelectorFilterEED2Ev.exit, label %if.then.i.i3.i

if.then.i.i3.i:                                   ; preds = %if.else.i
  invoke void @_ZN4absl12lts_202308026Status15UnrefNonInlinedEm(i64 noundef %this.val.i)
          to label %_ZN4absl12lts_2023080217internal_statusor12StatusOrDataIN9grpc_core12_GLOBAL__N_126ServerConfigSelectorFilterEED2Ev.exit unwind label %terminate.lpad.i4.i

terminate.lpad.i4.i:                              ; preds = %if.then.i.i3.i
  %1 = landingpad { ptr, i32 }
          catch ptr null
  %2 = extractvalue { ptr, i32 } %1, 0
  tail call void @__clang_call_terminate(ptr %2) #24
  unreachable

_ZN4absl12lts_2023080217internal_statusor12StatusOrDataIN9grpc_core12_GLOBAL__N_126ServerConfigSelectorFilterEED2Ev.exit: ; preds = %_ZN4absl12lts_202308026StatusD2Ev.exit.i, %if.else.i, %if.then.i.i3.i
  ret void
}